; Function Attrs: mustprogress uwtable
define noundef i32 @_Z35alts_handshaker_client_start_serverP22alts_handshaker_clientP10grpc_slice(ptr noundef %client, ptr noundef %bytes_received) local_unnamed_addr #3 {
entry:
  %cmp.not = icmp eq ptr %client, null
  br i1 %cmp.not, label %if.end, label %land.lhs.true

land.lhs.true:                                    ; preds = %entry
  %0 = load ptr, ptr %client, align 8
  %cmp1.not = icmp eq ptr %0, null
  br i1 %cmp1.not, label %if.end, label %land.lhs.true2

land.lhs.true2:                                   ; preds = %land.lhs.true
  %server_start = getelementptr inbounds i8, ptr %0, i64 8
  %1 = load ptr, ptr %server_start, align 8
  %cmp4.not = icmp eq ptr %1, null
  br i1 %cmp4.not, label %if.end, label %if.then

if.then:                                          ; preds = %land.lhs.true2
  %call = tail call noundef i32 %1(ptr noundef nonnull %client, ptr noundef %bytes_received)
  br label %return

if.end:                                           ; preds = %land.lhs.true2, %land.lhs.true, %entry
  tail call void (ptr, i32, i32, ptr, ...) @gpr_log(ptr noundef nonnull @.str, i32 noundef 902, i32 noundef 2, ptr noundef nonnull @.str.22)
  br label %return

return:                                           ; preds = %if.end, %if.then
  %retval.0 = phi i32 [ %call, %if.then ], [ 2, %if.end ]
  ret i32 %retval.0
}